target datalayout = "e-m:e-p270:32:32-p271:32:32-p272:64:64-i64:64-i128:128-f80:128-n8:16:32:64-S128"
target triple = "x86_64-unknown-linux-gnu"

%"class.google::protobuf::internal::InternalMetadata" = type { i64 }
%union.anon.0 = type { %"struct.google::protobuf::Any::Impl_" }
%"struct.google::protobuf::Any::Impl_" = type { %"struct.google::protobuf::internal::ArenaStringPtr", %"struct.google::protobuf::internal::ArenaStringPtr", %"class.google::protobuf::internal::CachedSize", %"class.google::protobuf::internal::AnyMetadata" }
%"struct.google::protobuf::internal::ArenaStringPtr" = type { %"class.google::protobuf::internal::TaggedStringPtr" }
%"class.google::protobuf::internal::TaggedStringPtr" = type { ptr }
%"class.google::protobuf::internal::CachedSize" = type { i32 }
%"class.google::protobuf::internal::AnyMetadata" = type { ptr, ptr }
%"class.google::protobuf::Any" = type { %"class.google::protobuf::Message", %union.anon.0 }
%"class.google::protobuf::Message" = type { %"class.google::protobuf::MessageLite" }
%"class.google::protobuf::MessageLite" = type { ptr, %"class.google::protobuf::internal::InternalMetadata" }
%"struct.google::protobuf::internal::InternalMetadata::Container" = type { %"struct.google::protobuf::internal::InternalMetadata::ContainerBase", %"class.google::protobuf::UnknownFieldSet" }
%"struct.google::protobuf::internal::InternalMetadata::ContainerBase" = type { ptr }
%"class.google::protobuf::UnknownFieldSet" = type { %"class.std::vector" }
%"class.std::vector" = type { %"struct.std::_Vector_base" }
%"struct.std::_Vector_base" = type { %"struct.std::_Vector_base<google::protobuf::UnknownField, std::allocator<google::protobuf::UnknownField>>::_Vector_impl" }
%"struct.std::_Vector_base<google::protobuf::UnknownField, std::allocator<google::protobuf::UnknownField>>::_Vector_impl" = type { %"struct.std::_Vector_base<google::protobuf::UnknownField, std::allocator<google::protobuf::UnknownField>>::_Vector_impl_data" }
%"struct.std::_Vector_base<google::protobuf::UnknownField, std::allocator<google::protobuf::UnknownField>>::_Vector_impl_data" = type { ptr, ptr, ptr }
%"class.google::protobuf::internal::InternalVisibility" = type { i8 }

@_ZTVN6google8protobuf7MessageE = external unnamed_addr constant { [13 x ptr] }, align 8

; Function Attrs: mustprogress nounwind uwtable
define linkonce_odr hidden noundef i64 @_ZNK6google8protobuf8internal15TaggedStringPtr6as_intEv(ptr noundef nonnull align 8 dereferenceable(8) %this) #6 comdat align 2 {
entry:
  %this.addr = alloca ptr, align 8
  store ptr %this, ptr %this.addr, align 8
  %this1 = load ptr, ptr %this.addr, align 8
  %ptr_ = getelementptr inbounds %"class.google::protobuf::internal::TaggedStringPtr", ptr %this1, i32 0, i32 0
  %0 = load ptr, ptr %ptr_, align 8
  %1 = ptrtoint ptr %0 to i64
  ret i64 %1
}

; Function Attrs: mustprogress uwtable
define linkonce_odr hidden noundef zeroext i1 @_ZNK6google8protobuf8internal15TaggedStringPtr9IsDefaultEv(ptr noundef nonnull align 8 dereferenceable(8) %this) #4 comdat align 2 {
entry:
  %this.addr = alloca ptr, align 8
  store ptr %this, ptr %this.addr, align 8
  %this1 = load ptr, ptr %this.addr, align 8
  %call = call noundef i64 @_ZNK6google8protobuf8internal15TaggedStringPtr6as_intEv(ptr noundef nonnull align 8 dereferenceable(8) %this1)
  %and = and i64 %call, 3
  %cmp = icmp eq i64 %and, 0
  ret i1 %cmp
}

; Function Attrs: mustprogress nounwind uwtable
define linkonce_odr hidden void @_ZN6google8protobuf8internal16InternalMetadataC2EPNS0_5ArenaE(ptr noundef nonnull align 8 dereferenceable(8) %this, ptr noundef %arena) unnamed_addr #6 comdat align 2 {
entry:
  %this.addr = alloca ptr, align 8
  %arena.addr = alloca ptr, align 8
  store ptr %this, ptr %this.addr, align 8
  store ptr %arena, ptr %arena.addr, align 8
  %this1 = load ptr, ptr %this.addr, align 8
  %0 = load ptr, ptr %arena.addr, align 8
  %1 = ptrtoint ptr %0 to i64
  %ptr_ = getelementptr inbounds %"class.google::protobuf::internal::InternalMetadata", ptr %this1, i32 0, i32 0
  store i64 %1, ptr %ptr_, align 8
  ret void
}

; Function Attrs: mustprogress nounwind uwtable
define linkonce_odr hidden void @_ZN6google8protobuf11MessageLiteD2Ev(ptr noundef nonnull align 8 dereferenceable(16) %this) unnamed_addr #6 comdat align 2 {
entry:
  %this.addr = alloca ptr, align 8
  store ptr %this, ptr %this.addr, align 8
  ret void
}

; Function Attrs: mustprogress uwtable
define linkonce_odr hidden ptr @_ZNK6google8protobuf8internal15TaggedStringPtr4CopyEPNS0_5ArenaE(ptr noundef nonnull align 8 dereferenceable(8) %this, ptr noundef %arena) #4 comdat align 2 {
entry:
  %retval = alloca %"class.google::protobuf::internal::TaggedStringPtr", align 8
  %this.addr = alloca ptr, align 8
  %arena.addr = alloca ptr, align 8
  store ptr %this, ptr %this.addr, align 8
  store ptr %arena, ptr %arena.addr, align 8
  %this1 = load ptr, ptr %this.addr, align 8
  %call = call noundef zeroext i1 @_ZNK6google8protobuf8internal15TaggedStringPtr9IsDefaultEv(ptr noundef nonnull align 8 dereferenceable(8) %this1)
  br i1 %call, label %cond.true, label %cond.false

cond.true:                                        ; preds = %entry
  call void @llvm.memcpy.p0.p0.i64(ptr align 8 %retval, ptr align 8 %this1, i64 8, i1 false)
  br label %cond.end

cond.false:                                       ; preds = %entry
  %0 = load ptr, ptr %arena.addr, align 8
  %call2 = call ptr @_ZNK6google8protobuf8internal15TaggedStringPtr9ForceCopyEPNS0_5ArenaE(ptr noundef nonnull align 8 dereferenceable(8) %this1, ptr noundef %0)
  %coerce.dive = getelementptr inbounds %"class.google::protobuf::internal::TaggedStringPtr", ptr %retval, i32 0, i32 0
  store ptr %call2, ptr %coerce.dive, align 8
  br label %cond.end

cond.end:                                         ; preds = %cond.false, %cond.true
  %coerce.dive3 = getelementptr inbounds %"class.google::protobuf::internal::TaggedStringPtr", ptr %retval, i32 0, i32 0
  %1 = load ptr, ptr %coerce.dive3, align 8
  ret ptr %1
}

; Function Attrs: mustprogress nounwind uwtable
define linkonce_odr hidden void @_ZN6google8protobuf8internal18InternalVisibilityC2Ev(ptr noundef nonnull align 1 dereferenceable(1) %this) unnamed_addr #6 comdat align 2 {
entry:
  %this.addr = alloca ptr, align 8
  store ptr %this, ptr %this.addr, align 8
  ret void
}

; Function Attrs: mustprogress uwtable
define linkonce_odr hidden void @_ZN6google8protobuf11MessageLiteC2EPNS0_5ArenaE(ptr noundef nonnull align 8 dereferenceable(16) %this, ptr noundef %arena) unnamed_addr #4 comdat align 2 {
entry:
  %this.addr = alloca ptr, align 8
  %arena.addr = alloca ptr, align 8
  store ptr %this, ptr %this.addr, align 8
  store ptr %arena, ptr %arena.addr, align 8
  %this1 = load ptr, ptr %this.addr, align 8
  store ptr getelementptr inbounds ({ [12 x ptr] }, ptr @_ZTVN6google8protobuf11MessageLiteE, i32 0, i32 0, i32 2), ptr %this1, align 8
  %_internal_metadata_ = getelementptr inbounds %"class.google::protobuf::MessageLite", ptr %this1, i32 0, i32 1
  %0 = load ptr, ptr %arena.addr, align 8
  call void @_ZN6google8protobuf8internal16InternalMetadataC2EPNS0_5ArenaE(ptr noundef nonnull align 8 dereferenceable(8) %_internal_metadata_, ptr noundef %0)
  ret void
}

; Function Attrs: mustprogress nounwind uwtable
define linkonce_odr hidden void @_ZN6google8protobuf7MessageD2Ev(ptr noundef nonnull align 8 dereferenceable(16) %this) unnamed_addr #6 comdat align 2 {
entry:
  %this.addr = alloca ptr, align 8
  store ptr %this, ptr %this.addr, align 8
  %this1 = load ptr, ptr %this.addr, align 8
  call void @_ZN6google8protobuf11MessageLiteD2Ev(ptr noundef nonnull align 8 dereferenceable(16) %this1) #3
  ret void
}

; Function Attrs: mustprogress nounwind uwtable
define linkonce_odr hidden void @_ZN6google8protobuf8internal11AnyMetadataC2EPNS1_14ArenaStringPtrES4_(ptr noundef nonnull align 8 dereferenceable(16) %this, ptr noundef %type_url, ptr noundef %value) unnamed_addr #6 comdat align 2 {
entry:
  %this.addr = alloca ptr, align 8
  %type_url.addr = alloca ptr, align 8
  %value.addr = alloca ptr, align 8
  store ptr %this, ptr %this.addr, align 8
  store ptr %type_url, ptr %type_url.addr, align 8
  store ptr %value, ptr %value.addr, align 8
  %this1 = load ptr, ptr %this.addr, align 8
  %type_url_ = getelementptr inbounds %"class.google::protobuf::internal::AnyMetadata", ptr %this1, i32 0, i32 0
  %0 = load ptr, ptr %type_url.addr, align 8
  store ptr %0, ptr %type_url_, align 8
  %value_ = getelementptr inbounds %"class.google::protobuf::internal::AnyMetadata", ptr %this1, i32 0, i32 1
  %1 = load ptr, ptr %value.addr, align 8
  store ptr %1, ptr %value_, align 8
  ret void
}

; Function Attrs: mustprogress nounwind uwtable
define linkonce_odr hidden void @_ZN6google8protobuf8internal10CachedSizeC2Ei(ptr noundef nonnull align 4 dereferenceable(4) %this, i32 noundef %desired) unnamed_addr #6 comdat align 2 {
entry:
  %this.addr = alloca ptr, align 8
  %desired.addr = alloca i32, align 4
  store ptr %this, ptr %this.addr, align 8
  store i32 %desired, ptr %desired.addr, align 4
  %this1 = load ptr, ptr %this.addr, align 8
  %atom_ = getelementptr inbounds %"class.google::protobuf::internal::CachedSize", ptr %this1, i32 0, i32 0
  %0 = load i32, ptr %desired.addr, align 4
  store i32 %0, ptr %atom_, align 4
  ret void
}

; Function Attrs: mustprogress uwtable
define linkonce_odr hidden void @_ZN6google8protobuf8internal14ArenaStringPtrC2EPNS0_5ArenaERKS2_(ptr noundef nonnull align 8 dereferenceable(8) %this, ptr noundef %arena, ptr noundef nonnull align 8 dereferenceable(8) %rhs) unnamed_addr #4 comdat align 2 {
entry:
  %this.addr = alloca ptr, align 8
  %arena.addr = alloca ptr, align 8
  %rhs.addr = alloca ptr, align 8
  store ptr %this, ptr %this.addr, align 8
  store ptr %arena, ptr %arena.addr, align 8
  store ptr %rhs, ptr %rhs.addr, align 8
  %this1 = load ptr, ptr %this.addr, align 8
  %tagged_ptr_ = getelementptr inbounds %"struct.google::protobuf::internal::ArenaStringPtr", ptr %this1, i32 0, i32 0
  %0 = load ptr, ptr %rhs.addr, align 8
  %tagged_ptr_2 = getelementptr inbounds %"struct.google::protobuf::internal::ArenaStringPtr", ptr %0, i32 0, i32 0
  %1 = load ptr, ptr %arena.addr, align 8
  %call = call ptr @_ZNK6google8protobuf8internal15TaggedStringPtr4CopyEPNS0_5ArenaE(ptr noundef nonnull align 8 dereferenceable(8) %tagged_ptr_2, ptr noundef %1)
  %coerce.dive = getelementptr inbounds %"class.google::protobuf::internal::TaggedStringPtr", ptr %tagged_ptr_, i32 0, i32 0
  store ptr %call, ptr %coerce.dive, align 8
  ret void
}

; Function Attrs: mustprogress uwtable
define linkonce_odr hidden void @_ZN6google8protobuf11MessageLite19internal_visibilityEv() #4 comdat align 2 {
entry:
  %retval = alloca %"class.google::protobuf::internal::InternalVisibility", align 1
  call void @_ZN6google8protobuf8internal18InternalVisibilityC2Ev(ptr noundef nonnull align 1 dereferenceable(1) %retval)
  ret void
}

; Function Attrs: mustprogress nounwind uwtable
define linkonce_odr hidden noundef ptr @_ZNK6google8protobuf8internal16InternalMetadata8PtrValueINS2_9ContainerINS0_15UnknownFieldSetEEEEEPT_v(ptr noundef nonnull align 8 dereferenceable(8) %this) #6 comdat align 2 {
entry:
  %this.addr = alloca ptr, align 8
  store ptr %this, ptr %this.addr, align 8
  %this1 = load ptr, ptr %this.addr, align 8
  %ptr_ = getelementptr inbounds %"class.google::protobuf::internal::InternalMetadata", ptr %this1, i32 0, i32 0
  %0 = load i64, ptr %ptr_, align 8
  %and = and i64 %0, -2
  %1 = inttoptr i64 %and to ptr
  ret ptr %1
}

; Function Attrs: mustprogress uwtable
define linkonce_odr hidden void @_ZN6google8protobuf7MessageC2EPNS0_5ArenaE(ptr noundef nonnull align 8 dereferenceable(16) %this, ptr noundef %arena) unnamed_addr #4 comdat align 2 {
entry:
  %this.addr = alloca ptr, align 8
  %arena.addr = alloca ptr, align 8
  store ptr %this, ptr %this.addr, align 8
  store ptr %arena, ptr %arena.addr, align 8
  %this1 = load ptr, ptr %this.addr, align 8
  %0 = load ptr, ptr %arena.addr, align 8
  call void @_ZN6google8protobuf11MessageLiteC2EPNS0_5ArenaE(ptr noundef nonnull align 8 dereferenceable(16) %this1, ptr noundef %0)
  store ptr getelementptr inbounds ({ [13 x ptr] }, ptr @_ZTVN6google8protobuf7MessageE, i32 0, i32 0, i32 2), ptr %this1, align 8
  ret void
}

; Function Attrs: mustprogress uwtable
define void @_ZN6google8protobuf3AnyC2EPNS0_5ArenaERKS1_(ptr noundef nonnull align 8 dereferenceable(56) %this, ptr noundef %arena, ptr noundef nonnull align 8 dereferenceable(56) %from) unnamed_addr #4 align 2 personality ptr @__gxx_personality_v0 {
entry:
  %this.addr.i20 = alloca ptr, align 8
  %this.addr.i18 = alloca ptr, align 8
  %this.addr.i.i = alloca ptr, align 8
  %retval.i = alloca ptr, align 8
  %this.addr.i14 = alloca ptr, align 8
  %default_instance.addr.i = alloca ptr, align 8
  %this.addr.i12 = alloca ptr, align 8
  %this.addr.i8 = alloca ptr, align 8
  %arena.addr.i = alloca ptr, align 8
  %from.addr.i = alloca ptr, align 8
  %this.addr.i = alloca ptr, align 8
  %other.addr.i = alloca ptr, align 8
  %this.addr = alloca ptr, align 8
  %arena.addr = alloca ptr, align 8
  %from.addr = alloca ptr, align 8
  %_this = alloca ptr, align 8
  %exn.slot = alloca ptr, align 8
  %ehselector.slot = alloca i32, align 4
  store ptr %this, ptr %this.addr, align 8
  store ptr %arena, ptr %arena.addr, align 8
  store ptr %from, ptr %from.addr, align 8
  %this1 = load ptr, ptr %this.addr, align 8
  %0 = load ptr, ptr %arena.addr, align 8
  call void @_ZN6google8protobuf7MessageC2EPNS0_5ArenaE(ptr noundef nonnull align 8 dereferenceable(16) %this1, ptr noundef %0)
  store ptr getelementptr inbounds ({ [13 x ptr] }, ptr @_ZTVN6google8protobuf3AnyE, i32 0, i32 0, i32 2), ptr %this1, align 8
  store ptr %this1, ptr %_this, align 8
  %_internal_metadata_ = getelementptr inbounds %"class.google::protobuf::MessageLite", ptr %this1, i32 0, i32 1
  %1 = load ptr, ptr %from.addr, align 8
  %_internal_metadata_2 = getelementptr inbounds %"class.google::protobuf::MessageLite", ptr %1, i32 0, i32 1
  store ptr %_internal_metadata_, ptr %this.addr.i, align 8
  store ptr %_internal_metadata_2, ptr %other.addr.i, align 8
  %this1.i = load ptr, ptr %this.addr.i, align 8
  %2 = load ptr, ptr %other.addr.i, align 8
  store ptr %2, ptr %this.addr.i12, align 8
  %this1.i13 = load ptr, ptr %this.addr.i12, align 8
  store ptr %this1.i13, ptr %this.addr.i20, align 8
  %this1.i21 = load ptr, ptr %this.addr.i20, align 8
  %3 = load i64, ptr %this1.i21, align 8
  %and.i22 = and i64 %3, 1
  %tobool.i23 = icmp ne i64 %and.i22, 0
  br label %call.i.noexc

call.i.noexc:                                     ; preds = %entry
  br i1 %tobool.i23, label %if.then.i, label %_ZN6google8protobuf8internal16InternalMetadata9MergeFromINS0_15UnknownFieldSetEEEvRKS2_.exit

if.then.i:                                        ; preds = %call.i.noexc
  %4 = load ptr, ptr %other.addr.i, align 8
  store ptr %4, ptr %this.addr.i14, align 8
  store ptr null, ptr %default_instance.addr.i, align 8
  %this1.i15 = load ptr, ptr %this.addr.i14, align 8
  store ptr %this1.i15, ptr %this.addr.i.i, align 8
  %this1.i.i = load ptr, ptr %this.addr.i.i, align 8
  store ptr %this1.i.i, ptr %this.addr.i18, align 8
  %this1.i19 = load ptr, ptr %this.addr.i18, align 8
  %5 = load i64, ptr %this1.i19, align 8
  %and.i = and i64 %5, 1
  %tobool.i = icmp ne i64 %and.i, 0
  br i1 %tobool.i, label %if.then.i16, label %if.else.i

if.then.i16:                                      ; preds = %if.then.i
  %call2.i = call noundef ptr @_ZNK6google8protobuf8internal16InternalMetadata8PtrValueINS2_9ContainerINS0_15UnknownFieldSetEEEEEPT_v(ptr noundef nonnull align 8 dereferenceable(8) %this1.i15)
  %unknown_fields.i = getelementptr inbounds %"struct.google::protobuf::internal::InternalMetadata::Container", ptr %call2.i, i32 0, i32 1
  store ptr %unknown_fields.i, ptr %retval.i, align 8
  br label %_ZNK6google8protobuf8internal16InternalMetadata14unknown_fieldsINS0_15UnknownFieldSetEEERKT_PFS7_vE.exit

if.else.i:                                        ; preds = %if.then.i
  %6 = load ptr, ptr %default_instance.addr.i, align 8
  %call3.i17 = invoke noundef nonnull align 8 dereferenceable(24) ptr %6()
          to label %call3.i.noexc unwind label %lpad

call3.i.noexc:                                    ; preds = %if.else.i
  store ptr %call3.i17, ptr %retval.i, align 8
  br label %_ZNK6google8protobuf8internal16InternalMetadata14unknown_fieldsINS0_15UnknownFieldSetEEERKT_PFS7_vE.exit

_ZNK6google8protobuf8internal16InternalMetadata14unknown_fieldsINS0_15UnknownFieldSetEEERKT_PFS7_vE.exit: ; preds = %call3.i.noexc, %if.then.i16
  %7 = load ptr, ptr %retval.i, align 8
  br label %call2.i.noexc

call2.i.noexc:                                    ; preds = %_ZNK6google8protobuf8internal16InternalMetadata14unknown_fieldsINS0_15UnknownFieldSetEEERKT_PFS7_vE.exit
  invoke void @_ZN6google8protobuf8internal16InternalMetadata11DoMergeFromINS0_15UnknownFieldSetEEEvRKT_(ptr noundef nonnull align 8 dereferenceable(8) %this1.i, ptr noundef nonnull align 8 dereferenceable(24) %7)
          to label %.noexc unwind label %lpad

.noexc:                                           ; preds = %call2.i.noexc
  br label %_ZN6google8protobuf8internal16InternalMetadata9MergeFromINS0_15UnknownFieldSetEEEvRKS2_.exit

_ZN6google8protobuf8internal16InternalMetadata9MergeFromINS0_15UnknownFieldSetEEEvRKS2_.exit: ; preds = %.noexc, %call.i.noexc
  br label %invoke.cont

invoke.cont:                                      ; preds = %_ZN6google8protobuf8internal16InternalMetadata9MergeFromINS0_15UnknownFieldSetEEEvRKS2_.exit
  %8 = getelementptr inbounds %"class.google::protobuf::Any", ptr %this1, i32 0, i32 1
  invoke void @_ZN6google8protobuf11MessageLite19internal_visibilityEv()
          to label %invoke.cont3 unwind label %lpad

invoke.cont3:                                     ; preds = %invoke.cont
  %9 = load ptr, ptr %arena.addr, align 8
  %10 = load ptr, ptr %from.addr, align 8
  %11 = getelementptr inbounds %"class.google::protobuf::Any", ptr %10, i32 0, i32 1
  store ptr %8, ptr %this.addr.i8, align 8
  store ptr %9, ptr %arena.addr.i, align 8
  store ptr %11, ptr %from.addr.i, align 8
  %this1.i9 = load ptr, ptr %this.addr.i8, align 8
  %12 = load ptr, ptr %arena.addr.i, align 8
  %13 = load ptr, ptr %from.addr.i, align 8
  invoke void @_ZN6google8protobuf8internal14ArenaStringPtrC2EPNS0_5ArenaERKS2_(ptr noundef nonnull align 8 dereferenceable(8) %this1.i9, ptr noundef %12, ptr noundef nonnull align 8 dereferenceable(8) %13)
          to label %.noexc10 unwind label %lpad

.noexc10:                                         ; preds = %invoke.cont3
  %value_.i = getelementptr inbounds %"struct.google::protobuf::Any::Impl_", ptr %this1.i9, i32 0, i32 1
  %14 = load ptr, ptr %arena.addr.i, align 8
  %15 = load ptr, ptr %from.addr.i, align 8
  %value_3.i = getelementptr inbounds %"struct.google::protobuf::Any::Impl_", ptr %15, i32 0, i32 1
  invoke void @_ZN6google8protobuf8internal14ArenaStringPtrC2EPNS0_5ArenaERKS2_(ptr noundef nonnull align 8 dereferenceable(8) %value_.i, ptr noundef %14, ptr noundef nonnull align 8 dereferenceable(8) %value_3.i)
          to label %_ZN6google8protobuf3Any5Impl_C2ENS0_8internal18InternalVisibilityEPNS0_5ArenaERKS2_.exit unwind label %lpad

_ZN6google8protobuf3Any5Impl_C2ENS0_8internal18InternalVisibilityEPNS0_5ArenaERKS2_.exit: ; preds = %.noexc10
  %_cached_size_.i = getelementptr inbounds %"struct.google::protobuf::Any::Impl_", ptr %this1.i9, i32 0, i32 2
  call void @_ZN6google8protobuf8internal10CachedSizeC2Ei(ptr noundef nonnull align 4 dereferenceable(4) %_cached_size_.i, i32 noundef 0) #3
  %_any_metadata_.i = getelementptr inbounds %"struct.google::protobuf::Any::Impl_", ptr %this1.i9, i32 0, i32 3
  %value_5.i = getelementptr inbounds %"struct.google::protobuf::Any::Impl_", ptr %this1.i9, i32 0, i32 1
  call void @_ZN6google8protobuf8internal11AnyMetadataC2EPNS1_14ArenaStringPtrES4_(ptr noundef nonnull align 8 dereferenceable(16) %_any_metadata_.i, ptr noundef %this1.i9, ptr noundef %value_5.i)
  br label %invoke.cont4

invoke.cont4:                                     ; preds = %_ZN6google8protobuf3Any5Impl_C2ENS0_8internal18InternalVisibilityEPNS0_5ArenaERKS2_.exit
  ret void

lpad:                                             ; preds = %.noexc10, %invoke.cont3, %invoke.cont, %call2.i.noexc, %if.else.i
  %16 = landingpad { ptr, i32 }
          cleanup
  %17 = extractvalue { ptr, i32 } %16, 0
  store ptr %17, ptr %exn.slot, align 8
  %18 = extractvalue { ptr, i32 } %16, 1
  store i32 %18, ptr %ehselector.slot, align 4
  call void @_ZN6google8protobuf7MessageD2Ev(ptr noundef nonnull align 8 dereferenceable(16) %this1) #3
  br label %eh.resume

eh.resume:                                        ; preds = %lpad
  %exn = load ptr, ptr %exn.slot, align 8
  %sel = load i32, ptr %ehselector.slot, align 4
  %lpad.val = insertvalue { ptr, i32 } poison, ptr %exn, 0
  %lpad.val5 = insertvalue { ptr, i32 } %lpad.val, i32 %sel, 1
  resume { ptr, i32 } %lpad.val5
}